; Function Attrs: mustprogress nofree norecurse nosync nounwind willreturn memory(none) uwtable
define noundef nonnull ptr @_ZN6duckdb21utf8proc_get_propertyEi(i32 noundef %0) local_unnamed_addr #0 {
  %or.cond = icmp ugt i32 %0, 1114111
  br i1 %or.cond, label %15, label %2

2:                                                ; preds = %1
  %3 = lshr i32 %0, 8
  %4 = zext nneg i32 %3 to i64
  %5 = getelementptr inbounds nuw [4352 x i16], ptr @_ZN6duckdbL20utf8proc_stage1tableE, i64 0, i64 %4
  %6 = load i16, ptr %5, align 2, !tbaa !8
  %7 = zext i16 %6 to i32
  %8 = and i32 %0, 255
  %9 = add nuw nsw i32 %8, %7
  %10 = zext nneg i32 %9 to i64
  %11 = getelementptr inbounds nuw [44800 x i16], ptr @_ZN6duckdbL20utf8proc_stage2tableE, i64 0, i64 %10
  %12 = load i16, ptr %11, align 2, !tbaa !8
  %13 = zext i16 %12 to i64
  %14 = getelementptr inbounds nuw %"struct.duckdb::utf8proc_property_struct", ptr @_ZN6duckdbL19utf8proc_propertiesE, i64 %13
  br label %15

15:                                               ; preds = %1, %2
  %16 = phi ptr [ %14, %2 ], [ @_ZN6duckdbL19utf8proc_propertiesE, %1 ]
  ret ptr %16
}